; Function Attrs: mustprogress nounwind uwtable
define void @_ZN5boost9iostreams6detail10bzip2_baseD2Ev(ptr nocapture noundef nonnull readonly align 8 dereferenceable(17) %0) unnamed_addr #7 align 2 {
  %2 = getelementptr inbounds nuw i8, ptr %0, i64 8
  %3 = load ptr, ptr %2, align 8, !tbaa !23
  %4 = icmp eq ptr %3, null
  br i1 %4, label %6, label %5

5:                                                ; preds = %1
  tail call void @_ZdlPvm(ptr noundef nonnull %3, i64 noundef 80) #25
  br label %6

6:                                                ; preds = %5, %1
  ret void
}